; Function Attrs: nounwind uwtable
define range(i64 -1, -9223372036854775808) i64 @H5Iregister(i32 noundef %0, ptr noundef %1) local_unnamed_addr #0 {
  %3 = load i8, ptr @H5_libinit_g, align 1
  %4 = trunc i8 %3 to i1
  %5 = load i8, ptr @H5_libterm_g, align 1
  %6 = trunc i8 %5 to i1
  %7 = select i1 %4, i1 true, i1 %6
  br i1 %7, label %15, label %8

8:                                                ; preds = %2
  %9 = tail call i32 @H5_init_library() #3
  %10 = icmp slt i32 %9, 0
  br i1 %10, label %11, label %15

11:                                               ; preds = %8
  %12 = load i64, ptr @H5E_FUNC_g, align 8
  %13 = load i64, ptr @H5E_CANTINIT_g, align 8
  %14 = tail call i32 (ptr, ptr, i32, i64, i64, ptr, ...) @H5E_printf_stack(ptr noundef nonnull @.str, ptr noundef nonnull @__func__.H5Iregister, i32 noundef 298, i64 noundef %12, i64 noundef %13, ptr noundef nonnull @.str.1) #3
  br label %.thread22

15:                                               ; preds = %8, %2
  %16 = tail call i32 @H5CX_push() #3
  %17 = icmp slt i32 %16, 0
  br i1 %17, label %18, label %22

18:                                               ; preds = %15
  %19 = load i64, ptr @H5E_FUNC_g, align 8
  %20 = load i64, ptr @H5E_CANTSET_g, align 8
  %21 = tail call i32 (ptr, ptr, i32, i64, i64, ptr, ...) @H5E_printf_stack(ptr noundef nonnull @.str, ptr noundef nonnull @__func__.H5Iregister, i32 noundef 298, i64 noundef %19, i64 noundef %20, ptr noundef nonnull @.str.2) #3
  br label %.thread22

22:                                               ; preds = %15
  %23 = tail call i32 @H5E_clear_stack() #3
  %24 = add i32 %0, -1
  %or.cond = icmp ult i32 %24, 16
  br i1 %or.cond, label %25, label %29

25:                                               ; preds = %22
  %26 = load i64, ptr @H5E_ID_g, align 8
  %27 = load i64, ptr @H5E_BADGROUP_g, align 8
  %28 = tail call i32 (ptr, ptr, i32, i64, i64, ptr, ...) @H5E_printf_stack(ptr noundef nonnull @.str, ptr noundef nonnull @__func__.H5Iregister, i32 noundef 301, i64 noundef %26, i64 noundef %27, ptr noundef nonnull @.str.6) #3
  br label %.thread28

29:                                               ; preds = %22
  %30 = tail call i64 @H5I__register(i32 noundef %0, ptr noundef %1, i1 noundef zeroext true, ptr noundef null, ptr noundef null) #3
  %31 = icmp slt i64 %30, 0
  br i1 %31, label %32, label %37

32:                                               ; preds = %29
  %33 = load i64, ptr @H5E_ID_g, align 8
  %34 = load i64, ptr @H5E_CANTREGISTER_g, align 8
  %35 = tail call i32 (ptr, ptr, i32, i64, i64, ptr, ...) @H5E_printf_stack(ptr noundef nonnull @.str, ptr noundef nonnull @__func__.H5Iregister, i32 noundef 305, i64 noundef %33, i64 noundef %34, ptr noundef nonnull @.str.10) #3
  br label %.thread28

.thread28:                                        ; preds = %32, %25
  %36 = tail call i32 @H5CX_pop(i1 noundef zeroext true) #3
  br label %.thread22

37:                                               ; preds = %29
  %38 = tail call i32 @H5CX_pop(i1 noundef zeroext true) #3
  br label %40

.thread22:                                        ; preds = %18, %11, %.thread28
  %39 = tail call i32 @H5E_dump_api_stack() #3
  br label %40

40:                                               ; preds = %37, %.thread22
  %.0121725 = phi i64 [ -1, %.thread22 ], [ %30, %37 ]
  ret i64 %.0121725
}